; Function Attrs: nofree norecurse nosync nounwind memory(write, argmem: readwrite, inaccessiblemem: none) uwtable
define void @Aig_CManAddNode(ptr noundef captures(none) %0, i32 noundef %1, i32 noundef %2) local_unnamed_addr #13 {
  %4 = getelementptr inbounds nuw i8, ptr %0, i64 12
  %5 = load i32, ptr %4, align 4, !tbaa !52
  %6 = add nsw i32 %5, 1
  store i32 %6, ptr %4, align 4, !tbaa !52
  %7 = shl i32 %5, 1
  %8 = sub nsw i32 %7, %2
  %.not5.i = icmp ult i32 %8, 128
  br i1 %.not5.i, label %Aig_CManStoreNum.exit, label %.lr.ph.i

.lr.ph.i:                                         ; preds = %3
  %9 = getelementptr inbounds nuw i8, ptr %0, i64 24
  br label %10

10:                                               ; preds = %10, %.lr.ph.i
  %.06.i = phi i32 [ %8, %.lr.ph.i ], [ %15, %10 ]
  %11 = trunc i32 %.06.i to i8
  %12 = or i8 %11, -128
  %13 = load ptr, ptr %9, align 8, !tbaa !54
  %14 = getelementptr inbounds nuw i8, ptr %13, i64 1
  store ptr %14, ptr %9, align 8, !tbaa !54
  store i8 %12, ptr %13, align 1, !tbaa !25
  %15 = lshr i32 %.06.i, 7
  %.not.i = icmp ult i32 %.06.i, 16384
  br i1 %.not.i, label %Aig_CManStoreNum.exit, label %10, !llvm.loop !55

Aig_CManStoreNum.exit:                            ; preds = %10, %3
  %.0.lcssa.i = phi i32 [ %8, %3 ], [ %15, %10 ]
  %16 = trunc nuw i32 %.0.lcssa.i to i8
  %17 = getelementptr inbounds nuw i8, ptr %0, i64 24
  %18 = load ptr, ptr %17, align 8, !tbaa !54
  %19 = getelementptr inbounds nuw i8, ptr %18, i64 1
  store ptr %19, ptr %17, align 8, !tbaa !54
  store i8 %16, ptr %18, align 1, !tbaa !25
  %20 = sub nsw i32 %2, %1
  %.not5.i5 = icmp ult i32 %20, 128
  br i1 %.not5.i5, label %Aig_CManStoreNum.exit10, label %.lr.ph.i6

.lr.ph.i6:                                        ; preds = %Aig_CManStoreNum.exit, %.lr.ph.i6
  %.06.i7 = phi i32 [ %25, %.lr.ph.i6 ], [ %20, %Aig_CManStoreNum.exit ]
  %21 = trunc i32 %.06.i7 to i8
  %22 = or i8 %21, -128
  %23 = load ptr, ptr %17, align 8, !tbaa !54
  %24 = getelementptr inbounds nuw i8, ptr %23, i64 1
  store ptr %24, ptr %17, align 8, !tbaa !54
  store i8 %22, ptr %23, align 1, !tbaa !25
  %25 = lshr i32 %.06.i7, 7
  %.not.i8 = icmp ult i32 %.06.i7, 16384
  br i1 %.not.i8, label %Aig_CManStoreNum.exit10, label %.lr.ph.i6, !llvm.loop !55

Aig_CManStoreNum.exit10:                          ; preds = %.lr.ph.i6, %Aig_CManStoreNum.exit
  %.0.lcssa.i9 = phi i32 [ %20, %Aig_CManStoreNum.exit ], [ %25, %.lr.ph.i6 ]
  %26 = trunc nuw i32 %.0.lcssa.i9 to i8
  %27 = load ptr, ptr %17, align 8, !tbaa !54
  %28 = getelementptr inbounds nuw i8, ptr %27, i64 1
  store ptr %28, ptr %17, align 8, !tbaa !54
  store i8 %26, ptr %27, align 1, !tbaa !25
  ret void
}